; ModuleID = '22/168.c'
source_filename = "22/168.c"
target datalayout = "e-m:e-p270:32:32-p271:32:32-p272:64:64-i64:64-f80:128-n8:16:32:64-S128"
target triple = "x86_64-pc-linux-gnu"

@.str = private unnamed_addr constant [3 x i8] c"%s\00", align 1
@.str.1 = private unnamed_addr constant [4 x i8] c"No\0A\00", align 1
@.str.2 = private unnamed_addr constant [3 x i8] c"%d\00", align 1
@.str.3 = private unnamed_addr constant [3 x i8] c"No\00", align 1

; Function Attrs: noinline nounwind uwtable
define dso_local void @main() #0 {
  %1 = alloca i32, align 4
  %2 = alloca i32, align 4
  %3 = alloca i32, align 4
  %4 = alloca i32, align 4
  %5 = alloca [300 x i32], align 16
  %6 = alloca [1500 x i8], align 16
  store i32 0, i32* %2, align 4
  %7 = getelementptr inbounds [1500 x i8], [1500 x i8]* %6, i64 0, i64 0
  %8 = call i32 (i8*, ...) @__isoc99_scanf(i8* getelementptr inbounds ([3 x i8], [3 x i8]* @.str, i64 0, i64 0), i8* %7)
  store i32 0, i32* %1, align 4
  br label %9

9:                                                ; preds = %16, %0
  %10 = load i32, i32* %1, align 4
  %11 = icmp slt i32 %10, 300
  br i1 %11, label %12, label %19

12:                                               ; preds = %9
  %13 = load i32, i32* %1, align 4
  %14 = sext i32 %13 to i64
  %15 = getelementptr inbounds [300 x i32], [300 x i32]* %5, i64 0, i64 %14
  store i32 0, i32* %15, align 4
  br label %16

16:                                               ; preds = %12
  %17 = load i32, i32* %1, align 4
  %18 = add nsw i32 %17, 1
  store i32 %18, i32* %1, align 4
  br label %9

19:                                               ; preds = %9
  store i32 0, i32* %1, align 4
  br label %20

20:                                               ; preds = %66, %19
  %21 = load i32, i32* %1, align 4
  %22 = icmp slt i32 %21, 1500
  br i1 %22, label %23, label %69

23:                                               ; preds = %20
  %24 = load i32, i32* %1, align 4
  %25 = sext i32 %24 to i64
  %26 = getelementptr inbounds [1500 x i8], [1500 x i8]* %6, i64 0, i64 %25
  %27 = load i8, i8* %26, align 1
  %28 = sext i8 %27 to i32
  %29 = icmp sgt i32 %28, 47
  br i1 %29, label %30, label %53

30:                                               ; preds = %23
  %31 = load i32, i32* %1, align 4
  %32 = sext i32 %31 to i64
  %33 = getelementptr inbounds [1500 x i8], [1500 x i8]* %6, i64 0, i64 %32
  %34 = load i8, i8* %33, align 1
  %35 = sext i8 %34 to i32
  %36 = icmp slt i32 %35, 58
  br i1 %36, label %37, label %53

37:                                               ; preds = %30
  %38 = load i32, i32* %2, align 4
  %39 = sext i32 %38 to i64
  %40 = getelementptr inbounds [300 x i32], [300 x i32]* %5, i64 0, i64 %39
  %41 = load i32, i32* %40, align 4
  %42 = mul nsw i32 %41, 10
  %43 = load i32, i32* %1, align 4
  %44 = sext i32 %43 to i64
  %45 = getelementptr inbounds [1500 x i8], [1500 x i8]* %6, i64 0, i64 %44
  %46 = load i8, i8* %45, align 1
  %47 = sext i8 %46 to i32
  %48 = add nsw i32 %42, %47
  %49 = sub nsw i32 %48, 48
  %50 = load i32, i32* %2, align 4
  %51 = sext i32 %50 to i64
  %52 = getelementptr inbounds [300 x i32], [300 x i32]* %5, i64 0, i64 %51
  store i32 %49, i32* %52, align 4
  br label %65

53:                                               ; preds = %30, %23
  %54 = load i32, i32* %1, align 4
  %55 = sext i32 %54 to i64
  %56 = getelementptr inbounds [1500 x i8], [1500 x i8]* %6, i64 0, i64 %55
  %57 = load i8, i8* %56, align 1
  %58 = sext i8 %57 to i32
  %59 = icmp eq i32 %58, 0
  br i1 %59, label %60, label %61

60:                                               ; preds = %53
  br label %69

61:                                               ; preds = %53
  %62 = load i32, i32* %2, align 4
  %63 = add nsw i32 %62, 1
  store i32 %63, i32* %2, align 4
  br label %64

64:                                               ; preds = %61
  br label %65

65:                                               ; preds = %64, %37
  br label %66

66:                                               ; preds = %65
  %67 = load i32, i32* %1, align 4
  %68 = add nsw i32 %67, 1
  store i32 %68, i32* %1, align 4
  br label %20

69:                                               ; preds = %60, %20
  store i32 0, i32* %1, align 4
  br label %70

70:                                               ; preds = %115, %69
  %71 = load i32, i32* %1, align 4
  %72 = load i32, i32* %2, align 4
  %73 = icmp slt i32 %71, %72
  br i1 %73, label %74, label %118

74:                                               ; preds = %70
  store i32 0, i32* %3, align 4
  br label %75

75:                                               ; preds = %111, %74
  %76 = load i32, i32* %3, align 4
  %77 = load i32, i32* %2, align 4
  %78 = load i32, i32* %1, align 4
  %79 = sub nsw i32 %77, %78
  %80 = icmp slt i32 %76, %79
  br i1 %80, label %81, label %114

81:                                               ; preds = %75
  %82 = load i32, i32* %3, align 4
  %83 = sext i32 %82 to i64
  %84 = getelementptr inbounds [300 x i32], [300 x i32]* %5, i64 0, i64 %83
  %85 = load i32, i32* %84, align 4
  %86 = load i32, i32* %3, align 4
  %87 = add nsw i32 %86, 1
  %88 = sext i32 %87 to i64
  %89 = getelementptr inbounds [300 x i32], [300 x i32]* %5, i64 0, i64 %88
  %90 = load i32, i32* %89, align 4
  %91 = icmp slt i32 %85, %90
  br i1 %91, label %92, label %110

92:                                               ; preds = %81
  %93 = load i32, i32* %3, align 4
  %94 = sext i32 %93 to i64
  %95 = getelementptr inbounds [300 x i32], [300 x i32]* %5, i64 0, i64 %94
  %96 = load i32, i32* %95, align 4
  store i32 %96, i32* %4, align 4
  %97 = load i32, i32* %3, align 4
  %98 = add nsw i32 %97, 1
  %99 = sext i32 %98 to i64
  %100 = getelementptr inbounds [300 x i32], [300 x i32]* %5, i64 0, i64 %99
  %101 = load i32, i32* %100, align 4
  %102 = load i32, i32* %3, align 4
  %103 = sext i32 %102 to i64
  %104 = getelementptr inbounds [300 x i32], [300 x i32]* %5, i64 0, i64 %103
  store i32 %101, i32* %104, align 4
  %105 = load i32, i32* %4, align 4
  %106 = load i32, i32* %3, align 4
  %107 = add nsw i32 %106, 1
  %108 = sext i32 %107 to i64
  %109 = getelementptr inbounds [300 x i32], [300 x i32]* %5, i64 0, i64 %108
  store i32 %105, i32* %109, align 4
  br label %110

110:                                              ; preds = %92, %81
  br label %111

111:                                              ; preds = %110
  %112 = load i32, i32* %3, align 4
  %113 = add nsw i32 %112, 1
  store i32 %113, i32* %3, align 4
  br label %75

114:                                              ; preds = %75
  br label %115

115:                                              ; preds = %114
  %116 = load i32, i32* %1, align 4
  %117 = add nsw i32 %116, 1
  store i32 %117, i32* %1, align 4
  br label %70

118:                                              ; preds = %70
  %119 = load i32, i32* %2, align 4
  %120 = icmp eq i32 %119, 0
  br i1 %120, label %121, label %123

121:                                              ; preds = %118
  %122 = call i32 (i8*, ...) @printf(i8* getelementptr inbounds ([4 x i8], [4 x i8]* @.str.1, i64 0, i64 0))
  br label %161

123:                                              ; preds = %118
  store i32 0, i32* %1, align 4
  br label %124

124:                                              ; preds = %157, %123
  %125 = load i32, i32* %1, align 4
  %126 = load i32, i32* %2, align 4
  %127 = add nsw i32 %126, 1
  %128 = icmp slt i32 %125, %127
  br i1 %128, label %129, label %160

129:                                              ; preds = %124
  %130 = load i32, i32* %1, align 4
  %131 = sext i32 %130 to i64
  %132 = getelementptr inbounds [300 x i32], [300 x i32]* %5, i64 0, i64 %131
  %133 = load i32, i32* %132, align 4
  %134 = load i32, i32* %1, align 4
  %135 = add nsw i32 %134, 1
  %136 = sext i32 %135 to i64
  %137 = getelementptr inbounds [300 x i32], [300 x i32]* %5, i64 0, i64 %136
  %138 = load i32, i32* %137, align 4
  %139 = icmp ne i32 %133, %138
  br i1 %139, label %140, label %156

140:                                              ; preds = %129
  %141 = load i32, i32* %1, align 4
  %142 = add nsw i32 %141, 1
  %143 = load i32, i32* %2, align 4
  %144 = add nsw i32 %143, 1
  %145 = icmp ne i32 %142, %144
  br i1 %145, label %146, label %153

146:                                              ; preds = %140
  %147 = load i32, i32* %1, align 4
  %148 = add nsw i32 %147, 1
  %149 = sext i32 %148 to i64
  %150 = getelementptr inbounds [300 x i32], [300 x i32]* %5, i64 0, i64 %149
  %151 = load i32, i32* %150, align 4
  %152 = call i32 (i8*, ...) @printf(i8* getelementptr inbounds ([3 x i8], [3 x i8]* @.str.2, i64 0, i64 0), i32 %151)
  br label %160

153:                                              ; preds = %140
  %154 = call i32 (i8*, ...) @printf(i8* getelementptr inbounds ([3 x i8], [3 x i8]* @.str.3, i64 0, i64 0))
  br label %155

155:                                              ; preds = %153
  br label %156

156:                                              ; preds = %155, %129
  br label %157

157:                                              ; preds = %156
  %158 = load i32, i32* %1, align 4
  %159 = add nsw i32 %158, 1
  store i32 %159, i32* %1, align 4
  br label %124

160:                                              ; preds = %146, %124
  br label %161

161:                                              ; preds = %160, %121
  ret void
}

declare dso_local i32 @__isoc99_scanf(i8*, ...) #1

declare dso_local i32 @printf(i8*, ...) #1


!llvm.module.flags = !{!0}
!llvm.ident = !{!1}

!0 = !{i32 1, !"wchar_size", i32 4}
!1 = !{!"clang version 10.0.0-4ubuntu1 "}
